target datalayout = "e-m:e-p270:32:32-p271:32:32-p272:64:64-i64:64-i128:128-f80:128-n8:16:32:64-S128"
target triple = "x86_64-pc-linux-gnu"

%struct.AVFilterContext = type { ptr, ptr, ptr, ptr, ptr, i32, ptr, ptr, i32, ptr, ptr, i32, i32, ptr, ptr, ptr, ptr, i32, ptr, i32, i32 }
%struct.AddROIContext = type { ptr, [4 x ptr], [4 x ptr], [4 x i32], %struct.AVRational, i32 }
%struct.AVRational = type { i32, i32 }

@addroi_param_names = internal constant [4 x i8] c"xywh", align 1
@addroi_var_names = internal constant [3 x ptr] [ptr @.str.24, ptr @.str.25, ptr null], align 16
@.str.23 = private unnamed_addr constant [35 x i8] c"Error parsing %c expression '%s'.\0A\00", align 1

; Function Attrs: cold nounwind optsize uwtable
define internal i32 @addroi_init(ptr noundef %0) #0 {
  %2 = alloca i32, align 4
  %3 = alloca ptr, align 8
  %4 = alloca ptr, align 8
  %5 = alloca i32, align 4
  %6 = alloca i32, align 4
  %7 = alloca i32, align 4
  store ptr %0, ptr %3, align 8, !tbaa !4
  call void @llvm.lifetime.start.p0(i64 8, ptr %4) #6
  %8 = load ptr, ptr %3, align 8, !tbaa !4
  %9 = getelementptr inbounds nuw %struct.AVFilterContext, ptr %8, i32 0, i32 9
  %10 = load ptr, ptr %9, align 8, !tbaa !9
  store ptr %10, ptr %4, align 8, !tbaa !22
  call void @llvm.lifetime.start.p0(i64 4, ptr %5) #6
  call void @llvm.lifetime.start.p0(i64 4, ptr %6) #6
  store i32 0, ptr %5, align 4, !tbaa !24
  br label %11

11:                                               ; preds = %45, %1
  %12 = load i32, ptr %5, align 4, !tbaa !24
  %13 = icmp slt i32 %12, 4
  br i1 %13, label %14, label %48

14:                                               ; preds = %11
  %15 = load ptr, ptr %4, align 8, !tbaa !22
  %16 = getelementptr inbounds nuw %struct.AddROIContext, ptr %15, i32 0, i32 2
  %17 = load i32, ptr %5, align 4, !tbaa !24
  %18 = sext i32 %17 to i64
  %19 = getelementptr inbounds [4 x ptr], ptr %16, i64 0, i64 %18
  %20 = load ptr, ptr %4, align 8, !tbaa !22
  %21 = getelementptr inbounds nuw %struct.AddROIContext, ptr %20, i32 0, i32 1
  %22 = load i32, ptr %5, align 4, !tbaa !24
  %23 = sext i32 %22 to i64
  %24 = getelementptr inbounds [4 x ptr], ptr %21, i64 0, i64 %23
  %25 = load ptr, ptr %24, align 8, !tbaa !25
  %26 = load ptr, ptr %3, align 8, !tbaa !4
  %27 = call i32 @av_expr_parse(ptr noundef %19, ptr noundef %25, ptr noundef @addroi_var_names, ptr noundef null, ptr noundef null, ptr noundef null, ptr noundef null, i32 noundef 0, ptr noundef %26)
  store i32 %27, ptr %6, align 4, !tbaa !24
  %28 = load i32, ptr %6, align 4, !tbaa !24
  %29 = icmp slt i32 %28, 0
  br i1 %29, label %30, label %44

30:                                               ; preds = %14
  %31 = load ptr, ptr %4, align 8, !tbaa !22
  %32 = load i32, ptr %5, align 4, !tbaa !24
  %33 = sext i32 %32 to i64
  %34 = getelementptr inbounds [4 x i8], ptr @addroi_param_names, i64 0, i64 %33
  %35 = load i8, ptr %34, align 1, !tbaa !26
  %36 = sext i8 %35 to i32
  %37 = load ptr, ptr %4, align 8, !tbaa !22
  %38 = getelementptr inbounds nuw %struct.AddROIContext, ptr %37, i32 0, i32 1
  %39 = load i32, ptr %5, align 4, !tbaa !24
  %40 = sext i32 %39 to i64
  %41 = getelementptr inbounds [4 x ptr], ptr %38, i64 0, i64 %40
  %42 = load ptr, ptr %41, align 8, !tbaa !25
  call void (ptr, i32, ptr, ...) @av_log(ptr noundef %31, i32 noundef 16, ptr noundef @.str.23, i32 noundef %36, ptr noundef %42)
  %43 = load i32, ptr %6, align 4, !tbaa !24
  store i32 %43, ptr %2, align 4
  store i32 1, ptr %7, align 4
  br label %49

44:                                               ; preds = %14
  br label %45

45:                                               ; preds = %44
  %46 = load i32, ptr %5, align 4, !tbaa !24
  %47 = add nsw i32 %46, 1
  store i32 %47, ptr %5, align 4, !tbaa !24
  br label %11, !llvm.loop !27

48:                                               ; preds = %11
  store i32 0, ptr %2, align 4
  store i32 1, ptr %7, align 4
  br label %49

49:                                               ; preds = %48, %30
  call void @llvm.lifetime.end.p0(i64 4, ptr %6) #6
  call void @llvm.lifetime.end.p0(i64 4, ptr %5) #6
  call void @llvm.lifetime.end.p0(i64 8, ptr %4) #6
  %50 = load i32, ptr %2, align 4
  ret i32 %50
}