; Function Attrs: cold nounwind optsize uwtable
define internal range(i32 -2147483648, 1) i32 @addroi_init(ptr noundef %0) #0 {
  %2 = getelementptr inbounds nuw i8, ptr %0, i64 72
  %3 = load ptr, ptr %2, align 8, !tbaa !4
  %4 = getelementptr inbounds nuw i8, ptr %3, i64 40
  %5 = getelementptr inbounds nuw i8, ptr %3, i64 8
  br label %7

6:                                                ; preds = %7
  %indvars.iv.next = add nuw nsw i64 %indvars.iv, 1
  %exitcond.not = icmp eq i64 %indvars.iv.next, 4
  br i1 %exitcond.not, label %.loopexit, label %7, !llvm.loop !20

7:                                                ; preds = %1, %6
  %indvars.iv = phi i64 [ 0, %1 ], [ %indvars.iv.next, %6 ]
  %8 = getelementptr inbounds nuw [4 x ptr], ptr %4, i64 0, i64 %indvars.iv
  %9 = getelementptr inbounds nuw [4 x ptr], ptr %5, i64 0, i64 %indvars.iv
  %10 = load ptr, ptr %9, align 8, !tbaa !22
  %11 = tail call i32 @av_expr_parse(ptr noundef nonnull %8, ptr noundef %10, ptr noundef nonnull @addroi_var_names, ptr noundef null, ptr noundef null, ptr noundef null, ptr noundef null, i32 noundef 0, ptr noundef %0) #5
  %12 = icmp slt i32 %11, 0
  br i1 %12, label %13, label %6

13:                                               ; preds = %7
  %14 = getelementptr inbounds nuw [4 x ptr], ptr %5, i64 0, i64 %indvars.iv
  %15 = getelementptr inbounds nuw [4 x i8], ptr @addroi_param_names, i64 0, i64 %indvars.iv
  %16 = load i8, ptr %15, align 1, !tbaa !23
  %17 = sext i8 %16 to i32
  %18 = load ptr, ptr %14, align 8, !tbaa !22
  tail call void (ptr, i32, ptr, ...) @av_log(ptr noundef nonnull %3, i32 noundef 16, ptr noundef nonnull @.str.23, i32 noundef %17, ptr noundef %18) #5
  br label %.loopexit

.loopexit:                                        ; preds = %6, %13
  %.0 = phi i32 [ %11, %13 ], [ 0, %6 ]
  ret i32 %.0
}